target datalayout = "e-m:e-p270:32:32-p271:32:32-p272:64:64-i64:64-i128:128-f80:128-n8:16:32:64-S128"
target triple = "x86_64-pc-linux-gnu"

%"struct.Luau::CodeGen::X64::RegisterX64" = type { i8 }
%"struct.Luau::CodeGen::X64::OperandX64" = type { i8, %"struct.Luau::CodeGen::X64::RegisterX64", %"struct.Luau::CodeGen::X64::RegisterX64", i8, i32 }
%"class.doctest::String" = type { %union.anon }
%union.anon = type { %"struct.doctest::String::view", [8 x i8] }
%"struct.doctest::String::view" = type { ptr, i32, i32 }
%"class.Luau::CodeGen::X64::AssemblyBuilderX64" = type <{ %"class.std::vector", %"class.std::vector", %"class.std::__cxx11::basic_string", i8, [3 x i8], i32, i32, [4 x i8], %"class.std::vector.188", %"class.std::vector.193", %"class.Luau::DenseHashMap", %"class.Luau::DenseHashMap.198", i8, [7 x i8], i64, ptr, ptr, i32, [4 x i8] }>
%"class.std::vector" = type { %"struct.std::_Vector_base" }
%"struct.std::_Vector_base" = type { %"struct.std::_Vector_base<unsigned char, std::allocator<unsigned char>>::_Vector_impl" }
%"struct.std::_Vector_base<unsigned char, std::allocator<unsigned char>>::_Vector_impl" = type { %"struct.std::_Vector_base<unsigned char, std::allocator<unsigned char>>::_Vector_impl_data" }
%"struct.std::_Vector_base<unsigned char, std::allocator<unsigned char>>::_Vector_impl_data" = type { ptr, ptr, ptr }
%"class.std::__cxx11::basic_string" = type { %"struct.std::__cxx11::basic_string<char>::_Alloc_hider", i64, %union.anon.187 }
%"struct.std::__cxx11::basic_string<char>::_Alloc_hider" = type { ptr }
%union.anon.187 = type { i64, [8 x i8] }
%"class.std::vector.188" = type { %"struct.std::_Vector_base.189" }
%"struct.std::_Vector_base.189" = type { %"struct.std::_Vector_base<Luau::CodeGen::Label, std::allocator<Luau::CodeGen::Label>>::_Vector_impl" }
%"struct.std::_Vector_base<Luau::CodeGen::Label, std::allocator<Luau::CodeGen::Label>>::_Vector_impl" = type { %"struct.std::_Vector_base<Luau::CodeGen::Label, std::allocator<Luau::CodeGen::Label>>::_Vector_impl_data" }
%"struct.std::_Vector_base<Luau::CodeGen::Label, std::allocator<Luau::CodeGen::Label>>::_Vector_impl_data" = type { ptr, ptr, ptr }
%"class.std::vector.193" = type { %"struct.std::_Vector_base.194" }
%"struct.std::_Vector_base.194" = type { %"struct.std::_Vector_base<unsigned int, std::allocator<unsigned int>>::_Vector_impl" }
%"struct.std::_Vector_base<unsigned int, std::allocator<unsigned int>>::_Vector_impl" = type { %"struct.std::_Vector_base<unsigned int, std::allocator<unsigned int>>::_Vector_impl_data" }
%"struct.std::_Vector_base<unsigned int, std::allocator<unsigned int>>::_Vector_impl_data" = type { ptr, ptr, ptr }
%"class.Luau::DenseHashMap" = type { %"class.Luau::detail::DenseHashTable" }
%"class.Luau::detail::DenseHashTable" = type <{ ptr, i64, i64, i32, %"struct.std::hash", %"struct.std::equal_to", [2 x i8] }>
%"struct.std::hash" = type { i8 }
%"struct.std::equal_to" = type { i8 }
%"class.Luau::DenseHashMap.198" = type { %"class.Luau::detail::DenseHashTable.199" }
%"class.Luau::detail::DenseHashTable.199" = type <{ ptr, i64, i64, i64, %"struct.std::hash.200", %"struct.std::equal_to.202", [6 x i8] }>
%"struct.std::hash.200" = type { i8 }
%"struct.std::equal_to.202" = type { i8 }
%"struct.doctest::detail::ResultBuilder" = type { %"struct.doctest::AssertData" }
%"struct.doctest::AssertData" = type { ptr, i32, ptr, i32, ptr, i8, i8, %"class.doctest::String", %"class.doctest::String", i8, ptr, %"class.doctest::AssertData::StringContains" }
%"class.doctest::AssertData::StringContains" = type <{ %"class.doctest::Contains", i8, [7 x i8] }>
%"class.doctest::Contains" = type { %"class.doctest::String" }
%"struct.doctest::detail::Result" = type { i8, %"class.doctest::String" }
%"struct.doctest::detail::ExpressionDecomposer" = type { i32 }
%"struct.doctest::detail::Expression_lhs.596" = type { i32, i32 }

@.str = private unnamed_addr constant [1 x i8] zeroinitializer, align 1
@.str.4 = private unnamed_addr constant [121 x i8] c"generated/home/dtcxzyw/WorkSpace/Projects/compilers/llvm-opt-benchmark/bench/luau/luau/tests/AssemblyBuilderX64.test.cpp\00", align 1
@.str.371 = private unnamed_addr constant [28 x i8] c"build.f64(2).imm == two.imm\00", align 1

; Function Attrs: mustprogress nounwind uwtable
define linkonce_odr dso_local void @_ZN7doctest6detail14Expression_lhsIiEC2EOiNS_10assertType4EnumE(ptr noundef nonnull align 4 dereferenceable(8) %0, ptr noundef nonnull align 4 dereferenceable(4) %1, i32 noundef %2) unnamed_addr #1 comdat align 2 {
  %4 = alloca ptr, align 8
  %5 = alloca ptr, align 8
  %6 = alloca i32, align 4
  store ptr %0, ptr %4, align 8
  store ptr %1, ptr %5, align 8
  store i32 %2, ptr %6, align 4
  %7 = load ptr, ptr %4, align 8
  %8 = getelementptr inbounds %"struct.doctest::detail::Expression_lhs.596", ptr %7, i32 0, i32 0
  %9 = load ptr, ptr %5, align 8
  %10 = load i32, ptr %9, align 4
  store i32 %10, ptr %8, align 4
  %11 = getelementptr inbounds %"struct.doctest::detail::Expression_lhs.596", ptr %7, i32 0, i32 1
  %12 = load i32, ptr %6, align 4
  store i32 %12, ptr %11, align 4
  ret void
}

; Function Attrs: mustprogress nounwind uwtable
define linkonce_odr dso_local void @_ZN7doctest6detail6ResultD2Ev(ptr noundef nonnull align 8 dereferenceable(32) %0) unnamed_addr #1 comdat align 2 {
  %2 = alloca ptr, align 8
  store ptr %0, ptr %2, align 8
  %3 = load ptr, ptr %2, align 8
  %4 = getelementptr inbounds %"struct.doctest::detail::Result", ptr %3, i32 0, i32 1
  call void @_ZN7doctest6StringD1Ev(ptr noundef nonnull align 8 dereferenceable(24) %4) #11
  ret void
}

; Function Attrs: mustprogress uwtable
define linkonce_odr dso_local i64 @_ZN7doctest6detail20ExpressionDecomposerlsIiEENS0_14Expression_lhsIT_EEOS4_(ptr noundef nonnull align 4 dereferenceable(4) %0, ptr noundef nonnull align 4 dereferenceable(4) %1) #4 comdat align 2 {
  %3 = alloca %"struct.doctest::detail::Expression_lhs.596", align 4
  %4 = alloca ptr, align 8
  %5 = alloca ptr, align 8
  store ptr %0, ptr %4, align 8
  store ptr %1, ptr %5, align 8
  %6 = load ptr, ptr %4, align 8
  %7 = load ptr, ptr %5, align 8
  %8 = getelementptr inbounds %"struct.doctest::detail::ExpressionDecomposer", ptr %6, i32 0, i32 0
  %9 = load i32, ptr %8, align 4
  call void @_ZN7doctest6detail14Expression_lhsIiEC2EOiNS_10assertType4EnumE(ptr noundef nonnull align 4 dereferenceable(8) %3, ptr noundef nonnull align 4 dereferenceable(4) %7, i32 noundef %9)
  %10 = load i64, ptr %3, align 4
  ret i64 %10
}

; Function Attrs: mustprogress uwtable
define internal void @_ZL20DOCTEST_ANON_FUNC_81v() #4 personality ptr @__gxx_personality_v0 {
  %1 = alloca %"class.Luau::CodeGen::X64::AssemblyBuilderX64", align 8
  %2 = alloca %"struct.Luau::CodeGen::X64::OperandX64", align 4
  %3 = alloca ptr, align 8
  %4 = alloca i32, align 4
  %5 = alloca i32, align 4
  %6 = alloca %"struct.Luau::CodeGen::X64::OperandX64", align 4
  %7 = alloca %"struct.doctest::detail::ResultBuilder", align 8
  %8 = alloca %"class.doctest::String", align 8
  %9 = alloca %"struct.doctest::detail::Result", align 8
  %10 = alloca %"struct.doctest::detail::Expression_lhs.596", align 4
  %11 = alloca %"struct.doctest::detail::ExpressionDecomposer", align 4
  %12 = alloca %"struct.Luau::CodeGen::X64::OperandX64", align 4
  call void @_ZN4Luau7CodeGen3X6418AssemblyBuilderX64C1Eb(ptr noundef nonnull align 8 dereferenceable(252) %1, i1 noundef zeroext false)
  %13 = invoke i64 @_ZN4Luau7CodeGen3X6418AssemblyBuilderX643f64Ed(ptr noundef nonnull align 8 dereferenceable(252) %1, double noundef 2.000000e+00)
          to label %14 unwind label %26

14:                                               ; preds = %0
  store i64 %13, ptr %2, align 4
  store i32 0, ptr %5, align 4
  br label %15

15:                                               ; preds = %23, %14
  %16 = load i32, ptr %5, align 4
  %17 = icmp slt i32 %16, 4096
  br i1 %17, label %18, label %30

18:                                               ; preds = %15
  %19 = load i32, ptr %5, align 4
  %20 = sitofp i32 %19 to double
  %21 = invoke i64 @_ZN4Luau7CodeGen3X6418AssemblyBuilderX643f64Ed(ptr noundef nonnull align 8 dereferenceable(252) %1, double noundef %20)
          to label %22 unwind label %26

22:                                               ; preds = %18
  store i64 %21, ptr %6, align 4
  br label %23

23:                                               ; preds = %22
  %24 = load i32, ptr %5, align 4
  %25 = add nsw i32 %24, 1
  store i32 %25, ptr %5, align 4
  br label %15, !llvm.loop !20

26:                                               ; preds = %76, %31, %18, %0
  %27 = landingpad { ptr, i32 }
          cleanup
  %28 = extractvalue { ptr, i32 } %27, 0
  store ptr %28, ptr %3, align 8
  %29 = extractvalue { ptr, i32 } %27, 1
  store i32 %29, ptr %4, align 4
  br label %80

30:                                               ; preds = %15
  br label %31

31:                                               ; preds = %30
  invoke void @_ZN7doctest6StringC1EPKc(ptr noundef nonnull align 8 dereferenceable(24) %8, ptr noundef @.str)
          to label %32 unwind label %26

32:                                               ; preds = %31
  invoke void @_ZN7doctest6detail13ResultBuilderC1ENS_10assertType4EnumEPKciS5_S5_RKNS_6StringE(ptr noundef nonnull align 8 dereferenceable(144) %7, i32 noundef 10, ptr noundef @.str.4, i32 noundef 774, ptr noundef @.str.371, ptr noundef @.str, ptr noundef nonnull align 8 dereferenceable(24) %8)
          to label %33 unwind label %43

33:                                               ; preds = %32
  call void @_ZN7doctest6StringD1Ev(ptr noundef nonnull align 8 dereferenceable(24) %8) #11
  invoke void @_ZN7doctest6detail20ExpressionDecomposerC1ENS_10assertType4EnumE(ptr noundef nonnull align 4 dereferenceable(4) %11, i32 noundef 10)
          to label %34 unwind label %47

34:                                               ; preds = %33
  %35 = invoke i64 @_ZN4Luau7CodeGen3X6418AssemblyBuilderX643f64Ed(ptr noundef nonnull align 8 dereferenceable(252) %1, double noundef 2.000000e+00)
          to label %36 unwind label %47

36:                                               ; preds = %34
  store i64 %35, ptr %12, align 4
  %37 = getelementptr inbounds %"struct.Luau::CodeGen::X64::OperandX64", ptr %12, i32 0, i32 4
  %38 = invoke i64 @_ZN7doctest6detail20ExpressionDecomposerlsIiEENS0_14Expression_lhsIT_EEOS4_(ptr noundef nonnull align 4 dereferenceable(4) %11, ptr noundef nonnull align 4 dereferenceable(4) %37)
          to label %39 unwind label %47

39:                                               ; preds = %36
  store i64 %38, ptr %10, align 4
  %40 = getelementptr inbounds %"struct.Luau::CodeGen::X64::OperandX64", ptr %2, i32 0, i32 4
  invoke void @_ZN7doctest6detail14Expression_lhsIiEeqIRiEEDTcmcvveqclL_ZNS0_7declvalIiEEOT_vEEclsr7doctest6detailE7declvalIS6_EEtlNS0_6ResultEEES7_(ptr dead_on_unwind writable sret(%"struct.doctest::detail::Result") align 8 %9, ptr noundef nonnull align 4 dereferenceable(8) %10, ptr noundef nonnull align 4 dereferenceable(4) %40)
          to label %41 unwind label %47

41:                                               ; preds = %39
  invoke void @_ZN7doctest6detail13ResultBuilder9setResultERKNS0_6ResultE(ptr noundef nonnull align 8 dereferenceable(144) %7, ptr noundef nonnull align 8 dereferenceable(32) %9)
          to label %42 unwind label %51

42:                                               ; preds = %41
  call void @_ZN7doctest6detail6ResultD2Ev(ptr noundef nonnull align 8 dereferenceable(32) %9) #11
  br label %60

43:                                               ; preds = %32
  %44 = landingpad { ptr, i32 }
          cleanup
  %45 = extractvalue { ptr, i32 } %44, 0
  store ptr %45, ptr %3, align 8
  %46 = extractvalue { ptr, i32 } %44, 1
  store i32 %46, ptr %4, align 4
  call void @_ZN7doctest6StringD1Ev(ptr noundef nonnull align 8 dereferenceable(24) %8) #11
  br label %80

47:                                               ; preds = %39, %36, %34, %33
  %48 = landingpad { ptr, i32 }
          catch ptr null
  %49 = extractvalue { ptr, i32 } %48, 0
  store ptr %49, ptr %3, align 8
  %50 = extractvalue { ptr, i32 } %48, 1
  store i32 %50, ptr %4, align 4
  br label %55

51:                                               ; preds = %41
  %52 = landingpad { ptr, i32 }
          catch ptr null
  %53 = extractvalue { ptr, i32 } %52, 0
  store ptr %53, ptr %3, align 8
  %54 = extractvalue { ptr, i32 } %52, 1
  store i32 %54, ptr %4, align 4
  call void @_ZN7doctest6detail6ResultD2Ev(ptr noundef nonnull align 8 dereferenceable(32) %9) #11
  br label %55

55:                                               ; preds = %51, %47
  %56 = load ptr, ptr %3, align 8
  %57 = call ptr @__cxa_begin_catch(ptr %56) #11
  invoke void @_ZN7doctest6detail13ResultBuilder18translateExceptionEv(ptr noundef nonnull align 8 dereferenceable(144) %7)
          to label %58 unwind label %64

58:                                               ; preds = %55
  invoke void @__cxa_end_catch()
          to label %59 unwind label %68

59:                                               ; preds = %58
  br label %60

60:                                               ; preds = %59, %42
  %61 = invoke noundef zeroext i1 @_ZN7doctest6detail13ResultBuilder3logEv(ptr noundef nonnull align 8 dereferenceable(144) %7)
          to label %62 unwind label %68

62:                                               ; preds = %60
  br i1 %61, label %63, label %73

63:                                               ; preds = %62
  call void asm sideeffect "int $$3\0A", "~{dirflag},~{fpsr},~{flags}"() #11, !srcloc !21
  br label %73

64:                                               ; preds = %55
  %65 = landingpad { ptr, i32 }
          cleanup
  %66 = extractvalue { ptr, i32 } %65, 0
  store ptr %66, ptr %3, align 8
  %67 = extractvalue { ptr, i32 } %65, 1
  store i32 %67, ptr %4, align 4
  invoke void @__cxa_end_catch()
          to label %72 unwind label %86

68:                                               ; preds = %73, %60, %58
  %69 = landingpad { ptr, i32 }
          cleanup
  %70 = extractvalue { ptr, i32 } %69, 0
  store ptr %70, ptr %3, align 8
  %71 = extractvalue { ptr, i32 } %69, 1
  store i32 %71, ptr %4, align 4
  br label %79

72:                                               ; preds = %64
  br label %79

73:                                               ; preds = %63, %62
  invoke void @_ZNK7doctest6detail13ResultBuilder5reactEv(ptr noundef nonnull align 8 dereferenceable(144) %7)
          to label %74 unwind label %68

74:                                               ; preds = %73
  call void @_ZN7doctest6detail13ResultBuilderD2Ev(ptr noundef nonnull align 8 dereferenceable(144) %7) #11
  br label %75

75:                                               ; preds = %74
  br label %76

76:                                               ; preds = %75
  %77 = invoke noundef zeroext i1 @_ZN4Luau7CodeGen3X6418AssemblyBuilderX648finalizeEv(ptr noundef nonnull align 8 dereferenceable(252) %1)
          to label %78 unwind label %26

78:                                               ; preds = %76
  call void @_ZN4Luau7CodeGen3X6418AssemblyBuilderX64D1Ev(ptr noundef nonnull align 8 dereferenceable(252) %1) #11
  ret void

79:                                               ; preds = %72, %68
  call void @_ZN7doctest6detail13ResultBuilderD2Ev(ptr noundef nonnull align 8 dereferenceable(144) %7) #11
  br label %80

80:                                               ; preds = %79, %43, %26
  call void @_ZN4Luau7CodeGen3X6418AssemblyBuilderX64D1Ev(ptr noundef nonnull align 8 dereferenceable(252) %1) #11
  br label %81

81:                                               ; preds = %80
  %82 = load ptr, ptr %3, align 8
  %83 = load i32, ptr %4, align 4
  %84 = insertvalue { ptr, i32 } poison, ptr %82, 0
  %85 = insertvalue { ptr, i32 } %84, i32 %83, 1
  resume { ptr, i32 } %85

86:                                               ; preds = %64
  %87 = landingpad { ptr, i32 }
          catch ptr null
  %88 = extractvalue { ptr, i32 } %87, 0
  call void @__clang_call_terminate(ptr %88) #12
  unreachable
}