; Function Attrs: mustprogress uwtable
define internal void @_ZL20DOCTEST_ANON_FUNC_81v() #2 personality ptr @__gxx_personality_v0 {
  %1 = alloca %"class.Luau::CodeGen::X64::AssemblyBuilderX64", align 8
  %2 = alloca %"struct.Luau::CodeGen::X64::OperandX64", align 8
  %3 = alloca %"struct.doctest::detail::ResultBuilder", align 8
  %4 = alloca %"class.doctest::String", align 8
  %5 = alloca %"struct.doctest::detail::Result", align 8
  %6 = alloca %"struct.doctest::detail::Expression_lhs.596", align 8
  %7 = alloca %"struct.doctest::detail::ExpressionDecomposer", align 4
  call void @_ZN4Luau7CodeGen3X6418AssemblyBuilderX64C1Eb(ptr noundef nonnull align 8 dereferenceable(252) %1, i1 noundef zeroext false)
  %8 = invoke i64 @_ZN4Luau7CodeGen3X6418AssemblyBuilderX643f64Ed(ptr noundef nonnull align 8 dereferenceable(252) %1, double noundef 2.000000e+00)
          to label %9 unwind label %.loopexit.split-lp

9:                                                ; preds = %0
  store i64 %8, ptr %2, align 8
  br label %10

10:                                               ; preds = %9, %13
  %.0512 = phi i32 [ 0, %9 ], [ %14, %13 ]
  %11 = uitofp nneg i32 %.0512 to double
  %12 = invoke i64 @_ZN4Luau7CodeGen3X6418AssemblyBuilderX643f64Ed(ptr noundef nonnull align 8 dereferenceable(252) %1, double noundef %11)
          to label %13 unwind label %.loopexit

13:                                               ; preds = %10
  %14 = add nuw nsw i32 %.0512, 1
  %exitcond.not = icmp eq i32 %14, 4096
  br i1 %exitcond.not, label %15, label %10, !llvm.loop !130

.loopexit:                                        ; preds = %10
  %lpad.loopexit = landingpad { ptr, i32 }
          cleanup
  br label %52

.loopexit.split-lp:                               ; preds = %0, %15, %45
  %lpad.loopexit.split-lp = landingpad { ptr, i32 }
          cleanup
  br label %52

15:                                               ; preds = %13
  invoke void @_ZN7doctest6StringC1EPKc(ptr noundef nonnull align 8 dereferenceable(24) %4, ptr noundef nonnull @.str)
          to label %16 unwind label %.loopexit.split-lp

16:                                               ; preds = %15
  invoke void @_ZN7doctest6detail13ResultBuilderC1ENS_10assertType4EnumEPKciS5_S5_RKNS_6StringE(ptr noundef nonnull align 8 dereferenceable(144) %3, i32 noundef 10, ptr noundef nonnull @.str.4, i32 noundef 774, ptr noundef nonnull @.str.371, ptr noundef nonnull @.str, ptr noundef nonnull align 8 dereferenceable(24) %4)
          to label %17 unwind label %26

17:                                               ; preds = %16
  call void @_ZN7doctest6StringD1Ev(ptr noundef nonnull align 8 dereferenceable(24) %4) #17
  invoke void @_ZN7doctest6detail20ExpressionDecomposerC1ENS_10assertType4EnumE(ptr noundef nonnull align 4 dereferenceable(4) %7, i32 noundef 10)
          to label %18 unwind label %28

18:                                               ; preds = %17
  %19 = invoke i64 @_ZN4Luau7CodeGen3X6418AssemblyBuilderX643f64Ed(ptr noundef nonnull align 8 dereferenceable(252) %1, double noundef 2.000000e+00)
          to label %20 unwind label %28

20:                                               ; preds = %18
  %21 = load i32, ptr %7, align 4
  %.sroa.2.0.insert.ext.i = zext i32 %21 to i64
  %.sroa.0.0.insert.insert.i = call i64 @llvm.fshl.i64(i64 %.sroa.2.0.insert.ext.i, i64 %19, i64 32)
  store i64 %.sroa.0.0.insert.insert.i, ptr %6, align 8
  %22 = getelementptr inbounds nuw i8, ptr %2, i64 4
  invoke void @_ZN7doctest6detail14Expression_lhsIiEeqIRiEEDTcmcvveqclL_ZNS0_7declvalIiEEOT_vEEclsr7doctest6detailE7declvalIS6_EEtlNS0_6ResultEEES7_(ptr dead_on_unwind nonnull writable sret(%"struct.doctest::detail::Result") align 8 %5, ptr noundef nonnull align 4 dereferenceable(8) %6, ptr noundef nonnull align 4 dereferenceable(4) %22)
          to label %23 unwind label %28

23:                                               ; preds = %20
  invoke void @_ZN7doctest6detail13ResultBuilder9setResultERKNS0_6ResultE(ptr noundef nonnull align 8 dereferenceable(144) %3, ptr noundef nonnull align 8 dereferenceable(32) %5)
          to label %24 unwind label %30

24:                                               ; preds = %23
  %25 = getelementptr inbounds nuw i8, ptr %5, i64 8
  call void @_ZN7doctest6StringD1Ev(ptr noundef nonnull align 8 dereferenceable(24) %25) #17
  br label %36

26:                                               ; preds = %16
  %27 = landingpad { ptr, i32 }
          cleanup
  call void @_ZN7doctest6StringD1Ev(ptr noundef nonnull align 8 dereferenceable(24) %4) #17
  br label %52

28:                                               ; preds = %20, %18, %17
  %29 = landingpad { ptr, i32 }
          catch ptr null
  br label %33

30:                                               ; preds = %23
  %31 = landingpad { ptr, i32 }
          catch ptr null
  %32 = getelementptr inbounds nuw i8, ptr %5, i64 8
  call void @_ZN7doctest6StringD1Ev(ptr noundef nonnull align 8 dereferenceable(24) %32) #17
  br label %33

33:                                               ; preds = %30, %28
  %.pn = phi { ptr, i32 } [ %31, %30 ], [ %29, %28 ]
  %.1 = extractvalue { ptr, i32 } %.pn, 0
  %34 = call ptr @__cxa_begin_catch(ptr %.1) #17
  invoke void @_ZN7doctest6detail13ResultBuilder18translateExceptionEv(ptr noundef nonnull align 8 dereferenceable(144) %3)
          to label %35 unwind label %40

35:                                               ; preds = %33
  invoke void @__cxa_end_catch()
          to label %36 unwind label %42

36:                                               ; preds = %35, %24
  %37 = invoke noundef zeroext i1 @_ZN7doctest6detail13ResultBuilder3logEv(ptr noundef nonnull align 8 dereferenceable(144) %3)
          to label %38 unwind label %42

38:                                               ; preds = %36
  br i1 %37, label %39, label %44

39:                                               ; preds = %38
  call void asm sideeffect "int $$3\0A", "~{dirflag},~{fpsr},~{flags}"() #17, !srcloc !131
  br label %44

40:                                               ; preds = %33
  %41 = landingpad { ptr, i32 }
          cleanup
  invoke void @__cxa_end_catch()
          to label %51 unwind label %53

42:                                               ; preds = %44, %36, %35
  %43 = landingpad { ptr, i32 }
          cleanup
  br label %51

44:                                               ; preds = %39, %38
  invoke void @_ZNK7doctest6detail13ResultBuilder5reactEv(ptr noundef nonnull align 8 dereferenceable(144) %3)
          to label %45 unwind label %42

45:                                               ; preds = %44
  %46 = getelementptr inbounds nuw i8, ptr %3, i64 112
  call void @_ZN7doctest6StringD1Ev(ptr noundef nonnull align 8 dereferenceable(25) %46) #17
  %47 = getelementptr inbounds nuw i8, ptr %3, i64 72
  call void @_ZN7doctest6StringD1Ev(ptr noundef nonnull align 8 dereferenceable(24) %47) #17
  %48 = getelementptr inbounds nuw i8, ptr %3, i64 48
  call void @_ZN7doctest6StringD1Ev(ptr noundef nonnull align 8 dereferenceable(24) %48) #17
  %49 = invoke noundef zeroext i1 @_ZN4Luau7CodeGen3X6418AssemblyBuilderX648finalizeEv(ptr noundef nonnull align 8 dereferenceable(252) %1)
          to label %50 unwind label %.loopexit.split-lp

50:                                               ; preds = %45
  call void @_ZN4Luau7CodeGen3X6418AssemblyBuilderX64D1Ev(ptr noundef nonnull align 8 dereferenceable(252) %1) #17
  ret void

51:                                               ; preds = %40, %42
  %.pn8 = phi { ptr, i32 } [ %43, %42 ], [ %41, %40 ]
  call void @_ZN7doctest6detail13ResultBuilderD2Ev(ptr noundef nonnull align 8 dereferenceable(144) %3) #17
  br label %52

52:                                               ; preds = %.loopexit, %.loopexit.split-lp, %51, %26
  %.pn10 = phi { ptr, i32 } [ %.pn8, %51 ], [ %27, %26 ], [ %lpad.loopexit, %.loopexit ], [ %lpad.loopexit.split-lp, %.loopexit.split-lp ]
  call void @_ZN4Luau7CodeGen3X6418AssemblyBuilderX64D1Ev(ptr noundef nonnull align 8 dereferenceable(252) %1) #17
  resume { ptr, i32 } %.pn10

53:                                               ; preds = %40
  %54 = landingpad { ptr, i32 }
          catch ptr null
  %55 = extractvalue { ptr, i32 } %54, 0
  call void @__clang_call_terminate(ptr %55) #20
  unreachable
}